(dp0
S'gw'
p1
S'Guinea Bissau'
p2
sS'gu'
p3
S'Guam (US)'
p4
sS'gt'
p5
S'Guatemala'
p6
sS'gr'
p7
S'Greece'
p8
sS'gq'
p9
S'Equatorial Guinea'
p10
sS'gp'
p11
S'Guadeloupe (Fr.)'
p12
sS'gy'
p13
S'Guyana'
p14
sS'gf'
p15
S'Guyana (Fr.)'
p16
sS'ge'
p17
S'Georgia'
p18
sS'gd'
p19
S'Grenada'
p20
sS'gb'
p21
S'Great Britain (UK)'
p22
sS'ga'
p23
S'Gabon'
p24
sS'gn'
p25
S'Guinea'
p26
sS'gm'
p27
S'Gambia'
p28
sS'gl'
p29
S'Greenland'
p30
sS'gi'
p31
S'Gibraltar'
p32
sS'gh'
p33
S'Ghana'
p34
sS'lb'
p35
S'Lebanon'
p36
sS'lc'
p37
S'Saint Lucia'
p38
sS'la'
p39
S'Laos'
p40
sS'tv'
p41
S'Tuvalu'
p42
sS'tw'
p43
S'Taiwan'
p44
sS'tt'
p45
S'Trinidad &amp; Tobago'
p46
sS'tr'
p47
S'Turkey'
p48
sS'lk'
p49
S'Sri Lanka'
p50
sS'tp'
p51
S'East Timor'
p52
sS'li'
p53
S'Liechtenstein'
p54
sS'lv'
p55
S'Latvia'
p56
sS'to'
p57
S'Tonga'
p58
sS'lt'
p59
S'Lithuania'
p60
sS'lu'
p61
S'Luxembourg'
p62
sS'lr'
p63
S'Liberia'
p64
sS'ls'
p65
S'Lesotho'
p66
sS'th'
p67
S'Thailand'
p68
sS'tf'
p69
S'French Southern Terr.'
p70
sS'su'
p71
S'Soviet Union'
p72
sS'td'
p73
S'Chad'
p74
sS'tc'
p75
S'Turks &amp; Caicos Islands'
p76
sS'ly'
p77
S'Libya'
p78
sS'do'
p79
S'Dominican Republic'
p80
sS'dm'
p81
S'Dominica'
p82
sS'dj'
p83
S'Djibouti'
p84
sS'dk'
p85
S'Denmark'
p86
sS'um'
p87
S'US Minor outlying Isl.'
p88
sS'de'
p89
S'Germany'
p90
sS'vc'
p91
S'St.Vincent &amp; Grenadines'
p92
sS'dz'
p93
S'Algeria'
p94
sS'uy'
p95
S'Uruguay'
p96
sS'yu'
p97
S'Yugoslavia'
p98
sS'vu'
p99
S'Vanuatu'
p100
sS'qa'
p101
S'Qatar'
p102
sS'tm'
p103
S'Turkmenistan'
p104
sS'eh'
p105
S'Western Sahara'
p106
sS'wf'
p107
S'Wallis &amp; Futuna Islands'
p108
sS'ee'
p109
S'Estonia'
p110
sS'eg'
p111
S'Egypt'
p112
sS'za'
p113
S'South Africa'
p114
sS'ec'
p115
S'Ecuador'
p116
sS'sj'
p117
S'Svalbard &amp; Jan Mayen Is'
p118
sS'uk'
p119
S'United Kingdom'
p120
sS'et'
p121
S'Ethiopia'
p122
sS'zw'
p123
S'Zimbabwe'
p124
sS'es'
p125
S'Spain'
p126
sS'tj'
p127
S'Tadjikistan'
p128
sS'ru'
p129
S'Russian Federation'
p130
sS'rw'
p131
S'Rwanda'
p132
sS're'
p133
S'Reunion (Fr.)'
p134
sS'it'
p135
S'Italy'
p136
sS'ro'
p137
S'Romania'
p138
sS'tk'
p139
S'Tokelau'
p140
sS'bd'
p141
S'Banglades'
p142
sS'be'
p143
S'Belgium'
p144
sS'bf'
p145
S'Burkina Faso'
p146
sS'bg'
p147
S'Bulgaria'
p148
sS'vg'
p149
S'Virgin Islands (British)'
p150
sS'ba'
p151
S'Bosnia-Herzegovina'
p152
sS'bb'
p153
S'Barbados'
p154
sS'bm'
p155
S'Bermuda'
p156
sS'bn'
p157
S'Brunei Darussalam'
p158
sS'bo'
p159
S'Bolivia'
p160
sS'bh'
p161
S'Bahrain'
p162
sS'bi'
p163
S'Burundi'
p164
sS'bj'
p165
S'Benin'
p166
sS'bt'
p167
S'Buthan'
p168
sS'jm'
p169
S'Jamaica'
p170
sS'bv'
p171
S'Bouvet Island'
p172
sS'bw'
p173
S'Botswana'
p174
sS'ws'
p175
S'Samoa'
p176
sS'br'
p177
S'Brazil'
p178
sS'bs'
p179
S'Bahamas'
p180
sS'tz'
p181
S'Tanzania'
p182
sS'by'
p183
S'Belarus'
p184
sS'bz'
p185
S'Belize'
p186
sS'om'
p187
S'Oman'
p188
sS'zm'
p189
S'Zambia'
p190
sS'ua'
p191
S'Ukraine'
p192
sS'jo'
p193
S'Jordan'
p194
sS'mz'
p195
S'Mozambique'
p196
sS'ck'
p197
S'Cook Islands'
p198
sS'ci'
p199
S'Ivory Coast'
p200
sS'ch'
p201
S'Switzerland'
p202
sS'co'
p203
S'Colombia'
p204
sS'cn'
p205
S'China'
p206
sS'cm'
p207
S'Cameroon'
p208
sS'cl'
p209
S'Chile'
p210
sS'cc'
p211
S'Cocos (Keeling) Isl.'
p212
sS'ca'
p213
S'Canada'
p214
sS'cg'
p215
S'Congo'
p216
sS'cf'
p217
S'Central African Rep.'
p218
sS'cz'
p219
S'Czech Republic'
p220
sS'cy'
p221
S'Cyprus'
p222
sS'cx'
p223
S'Christmas Island'
p224
sS'cs'
p225
S'Czechoslovakia'
p226
sS'cr'
p227
S'Costa Rica'
p228
sS'cv'
p229
S'Cape Verde'
p230
sS'cu'
p231
S'Cuba'
p232
sS've'
p233
S'Venezuela'
p234
sS'pr'
p235
S'Puerto Rico (US)'
p236
sS'tn'
p237
S'Tunisia'
p238
sS'pw'
p239
S'Palau'
p240
sS'pt'
p241
S'Portugal'
p242
sS'py'
p243
S'Paraguay'
p244
sS'iq'
p245
S'Iraq'
p246
sS'pa'
p247
S'Panama'
p248
sS'pf'
p249
S'Polynesia (Fr.)'
p250
sS'pg'
p251
S'Papua New'
p252
sS'pe'
p253
S'Peru'
p254
sS'pk'
p255
S'Pakistan'
p256
sS'ph'
p257
S'Philippines'
p258
sS'pn'
p259
S'Pitcairn'
p260
sS'tg'
p261
S'Togo'
p262
sS'pl'
p263
S'Poland'
p264
sS'pm'
p265
S'St. Pierre &amp; Miquelon'
p266
sS'hr'
p267
S'Croatia'
p268
sS'ht'
p269
S'Haiti'
p270
sS'hu'
p271
S'Hungary'
p272
sS'hk'
p273
S'Hong Kong'
p274
sS'hn'
p275
S'Honduras'
p276
sS'vn'
p277
S'Vietnam'
p278
sS'hm'
p279
S'Heard &amp; McDonald Isl.'
p280
sS'jp'
p281
S'Japan'
p282
sS'md'
p283
S'Moldavia'
p284
sS'mg'
p285
S'Madagascar'
p286
sS'ma'
p287
S'Morocco'
p288
sS'mc'
p289
S'Monaco'
p290
sS'uz'
p291
S'Uzbekistan'
p292
sS'mm'
p293
S'Myanmar'
p294
sS'ml'
p295
S'Mali'
p296
sS'mo'
p297
S'Macau'
p298
sS'mn'
p299
S'Mongolia'
p300
sS'mh'
p301
S'Marshall Islands'
p302
sS'us'
p303
S'United States'
p304
sS'mu'
p305
S'Mauritius'
p306
sS'mt'
p307
S'Malta'
p308
sS'mw'
p309
S'Malawi'
p310
sS'mv'
p311
S'Maldives'
p312
sS'mq'
p313
S'Martinique (Fr.)'
p314
sS'mp'
p315
S'Northern Mariana Isl.'
p316
sS'ms'
p317
S'Montserrat'
p318
sS'mr'
p319
S'Mauritania'
p320
sS'ug'
p321
S'Uganda'
p322
sS'my'
p323
S'Malaysia'
p324
sS'mx'
p325
S'Mexico'
p326
sS'il'
p327
S'Israel'
p328
sS'va'
p329
S'Vatican City State'
p330
sS'sa'
p331
S'Saudi Arabia'
p332
sS'ae'
p333
S'United Arab Emirates'
p334
sS'ad'
p335
S'Andorra'
p336
sS'ag'
p337
S'Antigua and Barbuda'
p338
sS'af'
p339
S'Afghanistan'
p340
sS'ai'
p341
S'Anguilla'
p342
sS'vi'
p343
S'Virgin Islands (US)'
p344
sS'is'
p345
S'Iceland'
p346
sS'ir'
p347
S'Iran'
p348
sS'am'
p349
S'Armenia'
p350
sS'al'
p351
S'Albania'
p352
sS'ao'
p353
S'Angola'
p354
sS'an'
p355
S'Netherland Antilles'
p356
sS'aq'
p357
S'Antarctica'
p358
sS'as'
p359
S'American Samoa'
p360
sS'ar'
p361
S'Argentina'
p362
sS'au'
p363
S'Australia'
p364
sS'at'
p365
S'Austria'
p366
sS'aw'
p367
S'Aruba'
p368
sS'in'
p369
S'India'
p370
sS'az'
p371
S'Azerbaidjan'
p372
sS'ie'
p373
S'Ireland'
p374
sS'id'
p375
S'Indonesia'
p376
sS'ni'
p377
S'Nicaragua'
p378
sS'nl'
p379
S'Netherlands'
p380
sS'no'
p381
S'Norway'
p382
sS'na'
p383
S'Namibia'
p384
sS'nc'
p385
S'New Caledonia (Fr.)'
p386
sS'ne'
p387
S'Niger'
p388
sS'nf'
p389
S'Norfolk Island'
p390
sS'ng'
p391
S'Nigeria'
p392
sS'nz'
p393
S'New Zealand'
p394
sS'sh'
p395
S'St. Helena'
p396
sS'zr'
p397
S'Zaire'
p398
sS'np'
p399
S'Nepal'
p400
sS'so'
p401
S'Somalia'
p402
sS'nr'
p403
S'Nauru'
p404
sS'nt'
p405
S'Neutral Zone'
p406
sS'nu'
p407
S'Niue'
p408
sS'fr'
p409
S'France'
p410
sS'io'
p411
S'British Indian O. Terr.'
p412
sS'fx'
p413
S'France (European Ter.)'
p414
sS'ye'
p415
S'Yemen'
p416
sS'sv'
p417
S'El Salvador'
p418
sS'sb'
p419
S'Solomon Islands'
p420
sS'fi'
p421
S'Finland'
p422
sS'fj'
p423
S'Fiji'
p424
sS'fk'
p425
S'Falkland Isl.(Malvinas)'
p426
sS'fm'
p427
S'Micronesia'
p428
sS'fo'
p429
S'Faroe Islands'
p430
sS'sz'
p431
S'Swaziland'
p432
sS'sy'
p433
S'Syria'
p434
sS'kg'
p435
S'Kirgistan'
p436
sS'ke'
p437
S'Kenya'
p438
sS'sr'
p439
S'Suriname'
p440
sS'ki'
p441
S'Kiribati'
p442
sS'kh'
p443
S'Cambodia'
p444
sS'kn'
p445
S'St.Kitts Nevis Anguilla'
p446
sS'km'
p447
S'Comoros'
p448
sS'st'
p449
S'St. Tome and Principe'
p450
sS'sk'
p451
S'Slovak Republic'
p452
sS'kr'
p453
S'Korea (South)'
p454
sS'si'
p455
S'Slovenia'
p456
sS'kp'
p457
S'Korea (North)'
p458
sS'kw'
p459
S'Kuwait'
p460
sS'sn'
p461
S'Senegal'
p462
sS'sm'
p463
S'San Marino'
p464
sS'sl'
p465
S'Sierra Leone'
p466
sS'sc'
p467
S'Seychelles'
p468
sS'kz'
p469
S'Kazachstan'
p470
sS'ky'
p471
S'Cayman Islands'
p472
sS'sg'
p473
S'Singapore'
p474
sS'se'
p475
S'Sweden'
p476
sS'sd'
p477
S'Sudan'
p478
s.